((dp1
I0
ccopy_reg
_reconstructor
p2
(cmeeplib
Thread
p3
c__builtin__
object
p4
NtRp5
(dp6
S'posts'
p7
(dp8
I0
g2
(cmeeplib
Message
p9
g4
NtRp10
(dp11
S'post'
p12
S'This is a lame test message.'
p13
sS'id'
p14
I0
sS'author'
p15
g2
(cmeeplib
User
p16
g4
NtRp17
(dp18
S'username'
p19
S'a Llama'
p20
sS'password'
p21
S'sheep'
p22
sg14
I0
sbsbssg14
I0
sS'title'
p23
S'This is a Test Thread'
p24
sbsI1
g2
(g3
g4
NtRp25
(dp26
g7
(dp27
I0
g2
(g9
g4
NtRp28
(dp29
g12
S'Day 1: I had a really bad itch on my back all day today that was driving me nuts. I wish my arms were longer, like my distant cousin, Deinocheirus.'
p30
sg14
I0
sg15
g2
(g16
g4
NtRp31
(dp32
g19
S'T-Rex'
p33
sg21
S'shortarms'
p34
sg14
I2
sbsbssg14
I1
sg23
S'T-Rex Journal'
p35
sbsI2
g2
(g3
g4
NtRp36
(dp37
g7
(dp38
I0
g2
(g9
g4
NtRp39
(dp40
g12
S'This is a lame test message.'
p41
sg14
I0
sg15
g2
(g16
g4
NtRp42
(dp43
g19
S'a Llama'
p44
sg21
S'sheep'
p45
sg14
I0
sbsbssg14
I2
sg23
S'This is a Test Thread'
p46
sbs(dp47
I0
g42
sI1
g2
(g16
g4
NtRp48
(dp49
g19
S'T-Rex'
p50
sg21
S'shortarms'
p51
sg14
I1
sbsI2
g31
sI3
g2
(g16
g4
NtRp52
(dp53
g19
S'T-Rex'
p54
sg21
S'shortarms'
p55
sg14
I3
sbs(dp56
g44
g42
sg54
g52
stp57
.