((dp1
I0
ccopy_reg
_reconstructor
p2
(cmeeplib
Thread
p3
c__builtin__
object
p4
NtRp5
(dp6
S'posts'
p7
(dp8
I0
g2
(cmeeplib
Message
p9
g4
NtRp10
(dp11
S'post'
p12
S'What?'
p13
sS'id'
p14
I0
sS'author'
p15
g2
(cmeeplib
User
p16
g4
NtRp17
(dp18
S'username'
p19
S'llama'
p20
sS'password'
p21
S'poop'
p22
sg14
I1
sbsbssg14
I0
sS'title'
p23
S'Hello!'
p24
sbs(dp25
I0
g2
(g16
g4
NtRp26
(dp27
g19
S'llama'
p28
sg21
S'poop'
p29
sg14
I0
sbsI1
g17
s(dp30
g28
g17
stp31
.